	.file	"FunctionLogger.cpp"
	.text
.Ltext0:
	.file 0 "/home/arsenyfucker/Cprojects/Recursive descent" "./ATC/Logger/FunctionLogger.cpp"
	.local	_ZStL8__ioinit
	.comm	_ZStL8__ioinit,1,1
	.section	.rodata
	.align 8
	.type	_ZL12STD_LOG_NAME, @object
	.size	_ZL12STD_LOG_NAME, 11
_ZL12STD_LOG_NAME:
	.string	"stdlog.ars"
.LC0:
	.string	"No name"
.LC1:
	.string	"%s::\n"
.LC2:
	.string	"{\n"
	.text
	.align 2
	.globl	_ZN14FunctionLoggerC2EiPKc
	.type	_ZN14FunctionLoggerC2EiPKc, @function
_ZN14FunctionLoggerC2EiPKc:
.LFB2271:
	.file 1 "./ATC/Logger/FunctionLogger.cpp"
	.loc 1 3 1
	.cfi_startproc
	endbr64
	pushq	%rbp
	.cfi_def_cfa_offset 16
	.cfi_offset 6, -16
	movq	%rsp, %rbp
	.cfi_def_cfa_register 6
	subq	$48, %rsp
	movq	%rdi, -24(%rbp)
	movl	%esi, -28(%rbp)
	movq	%rdx, -40(%rbp)
.LBB2:
	.loc 1 3 65
	movq	-24(%rbp), %rax
	movl	$0, (%rax)
	.loc 1 4 66
	movq	-24(%rbp), %rax
	movl	$0, 4(%rax)
	.loc 1 5 66
	movq	-24(%rbp), %rax
	movl	$0, 8(%rax)
	.loc 1 6 66
	movq	-24(%rbp), %rax
	leaq	.LC0(%rip), %rdx
	movq	%rdx, 16(%rax)
.LBB3:
	.loc 1 8 5
	cmpl	$0, -28(%rbp)
	jle	.L2
	.loc 1 9 21
	movq	-24(%rbp), %rax
	movl	-28(%rbp), %edx
	movl	%edx, 4(%rax)
.L2:
	.loc 1 11 5
	cmpq	$0, -40(%rbp)
	je	.L3
	.loc 1 12 23
	movq	-24(%rbp), %rax
	movq	-40(%rbp), %rdx
	movq	%rdx, 16(%rax)
.L3:
	.loc 1 14 38
	call	_ZN6Logger11getInstanceEv@PLT
	movq	%rax, -8(%rbp)
	.loc 1 16 29
	movq	-8(%rbp), %rax
	movq	%rax, %rdi
	call	_ZN6Logger8getlevelEv@PLT
	.loc 1 16 15
	movq	-24(%rbp), %rdx
	movl	%eax, (%rdx)
	.loc 1 18 18
	movl	-28(%rbp), %edx
	movq	-8(%rbp), %rax
	movl	%edx, %esi
	movq	%rax, %rdi
	call	_ZN6Logger8setlevelEi@PLT
	.loc 1 19 12
	movq	-24(%rbp), %rax
	movq	16(%rax), %rdx
	movq	-8(%rbp), %rax
	leaq	.LC1(%rip), %rcx
	movq	%rcx, %rsi
	movq	%rax, %rdi
	movl	$0, %eax
	call	_ZN6Logger3logEPKcz@PLT
	.loc 1 21 33
	movq	-8(%rbp), %rax
	movq	%rax, %rdi
	call	_ZN6Logger9getindentEv@PLT
	.loc 1 21 19
	leal	1(%rax), %edx
	movq	-8(%rbp), %rax
	movl	%edx, %esi
	movq	%rax, %rdi
	call	_ZN6Logger9setindentEi@PLT
	.loc 1 22 12
	movq	-8(%rbp), %rax
	leaq	.LC2(%rip), %rdx
	movq	%rdx, %rsi
	movq	%rax, %rdi
	movl	$0, %eax
	call	_ZN6Logger3logEPKcz@PLT
	.loc 1 24 35
	movq	-8(%rbp), %rax
	movq	%rax, %rdi
	call	_ZN6Logger9getindentEv@PLT
	.loc 1 24 20
	movq	-24(%rbp), %rdx
	movl	%eax, 8(%rdx)
	.loc 1 26 5
	nop
.LBE3:
.LBE2:
	.loc 1 27 5
	leave
	.cfi_def_cfa 7, 8
	ret
	.cfi_endproc
.LFE2271:
	.size	_ZN14FunctionLoggerC2EiPKc, .-_ZN14FunctionLoggerC2EiPKc
	.globl	_ZN14FunctionLoggerC1EiPKc
	.set	_ZN14FunctionLoggerC1EiPKc,_ZN14FunctionLoggerC2EiPKc
	.section	.rodata
.LC3:
	.string	"}\n\n"
	.text
	.align 2
	.globl	_ZN14FunctionLoggerD2Ev
	.type	_ZN14FunctionLoggerD2Ev, @function
_ZN14FunctionLoggerD2Ev:
.LFB2274:
	.loc 1 29 1
	.cfi_startproc
	.cfi_personality 0x9b,DW.ref.__gxx_personality_v0
	.cfi_lsda 0x1b,.LLSDA2274
	endbr64
	pushq	%rbp
	.cfi_def_cfa_offset 16
	.cfi_offset 6, -16
	movq	%rsp, %rbp
	.cfi_def_cfa_register 6
	subq	$32, %rsp
	movq	%rdi, -24(%rbp)
.LBB4:
.LBB5:
	.loc 1 31 38
	call	_ZN6Logger11getInstanceEv@PLT
	movq	%rax, -8(%rbp)
	.loc 1 34 13
	movq	-8(%rbp), %rax
	leaq	.LC3(%rip), %rdx
	movq	%rdx, %rsi
	movq	%rax, %rdi
	movl	$0, %eax
	call	_ZN6Logger3logEPKcz@PLT
	.loc 1 36 17
	movq	-24(%rbp), %rax
	movl	(%rax), %edx
	movq	-8(%rbp), %rax
	movl	%edx, %esi
	movq	%rax, %rdi
	call	_ZN6Logger8setlevelEi@PLT
	.loc 1 37 19
	movq	-24(%rbp), %rax
	movl	8(%rax), %eax
	.loc 1 37 18
	leal	-1(%rax), %edx
	movq	-8(%rbp), %rax
	movl	%edx, %esi
	movq	%rax, %rdi
	call	_ZN6Logger9setindentEi@PLT
.LBE5:
.LBE4:
	.loc 1 40 5
	nop
	leave
	.cfi_def_cfa 7, 8
	ret
	.cfi_endproc
.LFE2274:
	.globl	__gxx_personality_v0
	.section	.gcc_except_table,"a",@progbits
.LLSDA2274:
	.byte	0xff
	.byte	0xff
	.byte	0x1
	.uleb128 .LLSDACSE2274-.LLSDACSB2274
.LLSDACSB2274:
.LLSDACSE2274:
	.text
	.size	_ZN14FunctionLoggerD2Ev, .-_ZN14FunctionLoggerD2Ev
	.globl	_ZN14FunctionLoggerD1Ev
	.set	_ZN14FunctionLoggerD1Ev,_ZN14FunctionLoggerD2Ev
	.type	_Z41__static_initialization_and_destruction_0ii, @function
_Z41__static_initialization_and_destruction_0ii:
.LFB2942:
	.loc 1 40 5
	.cfi_startproc
	endbr64
	pushq	%rbp
	.cfi_def_cfa_offset 16
	.cfi_offset 6, -16
	movq	%rsp, %rbp
	.cfi_def_cfa_register 6
	subq	$16, %rsp
	movl	%edi, -4(%rbp)
	movl	%esi, -8(%rbp)
	.loc 1 40 5
	cmpl	$1, -4(%rbp)
	jne	.L8
	.loc 1 40 5 is_stmt 0 discriminator 1
	cmpl	$65535, -8(%rbp)
	jne	.L8
	.file 2 "/usr/include/c++/11/iostream"
	.loc 2 74 25 is_stmt 1
	leaq	_ZStL8__ioinit(%rip), %rax
	movq	%rax, %rdi
	call	_ZNSt8ios_base4InitC1Ev@PLT
	leaq	__dso_handle(%rip), %rax
	movq	%rax, %rdx
	leaq	_ZStL8__ioinit(%rip), %rax
	movq	%rax, %rsi
	movq	_ZNSt8ios_base4InitD1Ev@GOTPCREL(%rip), %rax
	movq	%rax, %rdi
	call	__cxa_atexit@PLT
.L8:
	.loc 1 40 5
	nop
	leave
	.cfi_def_cfa 7, 8
	ret
	.cfi_endproc
.LFE2942:
	.size	_Z41__static_initialization_and_destruction_0ii, .-_Z41__static_initialization_and_destruction_0ii
	.type	_GLOBAL__sub_I__ZN14FunctionLoggerC2EiPKc, @function
_GLOBAL__sub_I__ZN14FunctionLoggerC2EiPKc:
.LFB2943:
	.loc 1 40 5
	.cfi_startproc
	endbr64
	pushq	%rbp
	.cfi_def_cfa_offset 16
	.cfi_offset 6, -16
	movq	%rsp, %rbp
	.cfi_def_cfa_register 6
	.loc 1 40 5
	movl	$65535, %esi
	movl	$1, %edi
	call	_Z41__static_initialization_and_destruction_0ii
	popq	%rbp
	.cfi_def_cfa 7, 8
	ret
	.cfi_endproc
.LFE2943:
	.size	_GLOBAL__sub_I__ZN14FunctionLoggerC2EiPKc, .-_GLOBAL__sub_I__ZN14FunctionLoggerC2EiPKc
	.section	.init_array,"aw"
	.align 8
	.quad	_GLOBAL__sub_I__ZN14FunctionLoggerC2EiPKc
	.text
.Letext0:
	.file 3 "<built-in>"
	.file 4 "/usr/lib/gcc/x86_64-linux-gnu/11/include/stddef.h"
	.file 5 "/usr/include/x86_64-linux-gnu/bits/types/wint_t.h"
	.file 6 "/usr/include/x86_64-linux-gnu/bits/types/__mbstate_t.h"
	.file 7 "/usr/include/x86_64-linux-gnu/bits/types/mbstate_t.h"
	.file 8 "/usr/include/x86_64-linux-gnu/bits/types/__FILE.h"
	.file 9 "/usr/include/x86_64-linux-gnu/bits/types/struct_FILE.h"
	.file 10 "/usr/include/x86_64-linux-gnu/bits/types/FILE.h"
	.file 11 "/usr/include/c++/11/cwchar"
	.file 12 "/usr/include/c++/11/type_traits"
	.file 13 "/usr/include/c++/11/bits/exception_ptr.h"
	.file 14 "/usr/include/x86_64-linux-gnu/c++/11/bits/c++config.h"
	.file 15 "/usr/include/c++/11/concepts"
	.file 16 "/usr/include/c++/11/bits/iterator_concepts.h"
	.file 17 "/usr/include/c++/11/bits/ranges_cmp.h"
	.file 18 "/usr/include/c++/11/compare"
	.file 19 "/usr/include/c++/11/debug/debug.h"
	.file 20 "/usr/include/c++/11/cstdint"
	.file 21 "/usr/include/c++/11/clocale"
	.file 22 "/usr/include/c++/11/cstdlib"
	.file 23 "/usr/include/c++/11/numbers"
	.file 24 "/usr/include/c++/11/cstdio"
	.file 25 "/usr/include/c++/11/bits/ios_base.h"
	.file 26 "/usr/include/c++/11/cwctype"
	.file 27 "/usr/include/wchar.h"
	.file 28 "/usr/include/x86_64-linux-gnu/bits/types/struct_tm.h"
	.file 29 "/usr/include/c++/11/bits/predefined_ops.h"
	.file 30 "/usr/include/c++/11/bits/ptr_traits.h"
	.file 31 "/usr/include/x86_64-linux-gnu/bits/types.h"
	.file 32 "/usr/include/x86_64-linux-gnu/bits/stdint-intn.h"
	.file 33 "/usr/include/x86_64-linux-gnu/bits/stdint-uintn.h"
	.file 34 "/usr/include/stdint.h"
	.file 35 "/usr/include/locale.h"
	.file 36 "/usr/include/stdlib.h"
	.file 37 "/usr/include/x86_64-linux-gnu/bits/types/__fpos_t.h"
	.file 38 "/usr/include/stdio.h"
	.file 39 "/usr/include/x86_64-linux-gnu/bits/wctype-wchar.h"
	.file 40 "/usr/include/wctype.h"
	.file 41 "./ATC/Logger/LogConfig.h"
	.file 42 "./ATC/Logger/FunctionLogger.h"
	.file 43 "./ATC/Logger/Logger.h"
	.file 44 "/usr/include/c++/11/bits/algorithmfwd.h"
	.section	.data.rel.local.DW.ref.__gxx_personality_v0,"awG",@progbits,DW.ref.__gxx_personality_v0,comdat
	.align 8
	.type	DW.ref.__gxx_personality_v0, @object
	.size	DW.ref.__gxx_personality_v0, 8
DW.ref.__gxx_personality_v0:
	.quad	__gxx_personality_v0
	.hidden	__dso_handle
	.ident	"GCC: (Ubuntu 11.3.0-1ubuntu1~22.04) 11.3.0"
	.section	.note.GNU-stack,"",@progbits
	.section	.note.gnu.property,"a"
	.align 8
	.long	1f - 0f
	.long	4f - 1f
	.long	5
0:
	.string	"GNU"
1:
	.align 8
	.long	0xc0000002
	.long	3f - 2f
2:
	.long	0x3
3:
	.align 8
4:
