	.file	"my_safety.cpp"
	.text
.Ltext0:
	.file 0 "/home/arsenyfucker/Cprojects/Recursive descent" "./ATC/my_safety/my_safety.cpp"
	.section	.rodata
	.align 4
	.type	_ZL13_CANARY_SIZE_, @object
	.size	_ZL13_CANARY_SIZE_, 4
_ZL13_CANARY_SIZE_:
	.long	8
	.align 4
	.type	_ZL16_OPENING_CANARY_, @object
	.size	_ZL16_OPENING_CANARY_, 4
_ZL16_OPENING_CANARY_:
	.long	11259375
	.align 4
	.type	_ZL16_CLOSING_CANARY_, @object
	.size	_ZL16_CLOSING_CANARY_, 4
_ZL16_CLOSING_CANARY_:
	.long	16702650
	.align 4
	.type	_ZL17HASH_START_OFFSET, @object
	.size	_ZL17HASH_START_OFFSET, 4
_ZL17HASH_START_OFFSET:
	.long	17
	.text
	.globl	_Z13canary_callocmm
	.type	_Z13canary_callocmm, @function
_Z13canary_callocmm:
.LFB13:
	.file 1 "./ATC/my_safety/my_safety.cpp"
	.loc 1 9 5
	.cfi_startproc
	endbr64
	pushq	%rbp
	.cfi_def_cfa_offset 16
	.cfi_offset 6, -16
	movq	%rsp, %rbp
	.cfi_def_cfa_register 6
	subq	$48, %rsp
	movq	%rdi, -40(%rbp)
	movq	%rsi, -48(%rbp)
	.loc 1 10 12
	movq	-40(%rbp), %rax
	imulq	-48(%rbp), %rax
	movq	%rax, -24(%rbp)
	.loc 1 13 16
	addq	$16, -24(%rbp)
	.loc 1 16 30
	movq	-24(%rbp), %rax
	movq	%rax, %rsi
	movl	$1, %edi
	call	calloc@PLT
	movq	%rax, -32(%rbp)
.LBB2:
	.loc 1 19 5
	cmpq	$0, -32(%rbp)
	je	.L2
.LBB3:
	.loc 1 21 17
	movq	-32(%rbp), %rax
	movq	%rax, -16(%rbp)
	.loc 1 22 74
	movq	-24(%rbp), %rax
	leaq	-8(%rax), %rdx
	.loc 1 22 17
	movq	-32(%rbp), %rax
	addq	%rdx, %rax
	movq	%rax, -8(%rbp)
	.loc 1 24 22
	movq	-16(%rbp), %rax
	movq	$11259375, (%rax)
	.loc 1 25 23
	movq	-8(%rbp), %rax
	movq	$16702650, (%rax)
	.loc 1 27 20
	addq	$8, -32(%rbp)
.L2:
.LBE3:
.LBE2:
	.loc 1 31 12
	movq	-32(%rbp), %rax
	.loc 1 32 5
	leave
	.cfi_def_cfa 7, 8
	ret
	.cfi_endproc
.LFE13:
	.size	_Z13canary_callocmm, .-_Z13canary_callocmm
	.globl	_Z14canary_reallocPvmm
	.type	_Z14canary_reallocPvmm, @function
_Z14canary_reallocPvmm:
.LFB14:
	.loc 1 35 5
	.cfi_startproc
	endbr64
	pushq	%rbp
	.cfi_def_cfa_offset 16
	.cfi_offset 6, -16
	movq	%rsp, %rbp
	.cfi_def_cfa_register 6
	subq	$48, %rsp
	movq	%rdi, -24(%rbp)
	movq	%rsi, -32(%rbp)
	movq	%rdx, -40(%rbp)
	.loc 1 36 5
	cmpq	$0, -24(%rbp)
	jne	.L5
	.loc 1 37 15
	movl	$0, %eax
	jmp	.L6
.L5:
	.loc 1 40 71
	movq	-32(%rbp), %rax
	imulq	-40(%rbp), %rax
	.loc 1 40 18
	leaq	16(%rax), %rdx
	movq	-24(%rbp), %rax
	subq	$8, %rax
	movq	%rdx, %rsi
	movq	%rax, %rdi
	call	realloc@PLT
	movq	%rax, -24(%rbp)
.LBB4:
	.loc 1 42 5
	cmpq	$0, -24(%rbp)
	je	.L7
.LBB5:
	.loc 1 44 17
	movq	-24(%rbp), %rax
	movq	%rax, -16(%rbp)
	.loc 1 45 81
	movq	-32(%rbp), %rax
	imulq	-40(%rbp), %rax
	.loc 1 45 98
	leaq	8(%rax), %rdx
	.loc 1 45 17
	movq	-24(%rbp), %rax
	addq	%rdx, %rax
	movq	%rax, -8(%rbp)
	.loc 1 47 22
	movq	-16(%rbp), %rax
	movq	$11259375, (%rax)
	.loc 1 48 23
	movq	-8(%rbp), %rax
	movq	$16702650, (%rax)
	.loc 1 50 13
	addq	$8, -24(%rbp)
.L7:
.LBE5:
.LBE4:
	.loc 1 53 12
	movq	-24(%rbp), %rax
.L6:
	.loc 1 54 5
	leave
	.cfi_def_cfa 7, 8
	ret
	.cfi_endproc
.LFE14:
	.size	_Z14canary_reallocPvmm, .-_Z14canary_reallocPvmm
	.globl	_Z11canary_freePv
	.type	_Z11canary_freePv, @function
_Z11canary_freePv:
.LFB15:
	.loc 1 57 5
	.cfi_startproc
	endbr64
	pushq	%rbp
	.cfi_def_cfa_offset 16
	.cfi_offset 6, -16
	movq	%rsp, %rbp
	.cfi_def_cfa_register 6
	subq	$16, %rsp
	movq	%rdi, -8(%rbp)
	.loc 1 58 9
	movq	-8(%rbp), %rax
	subq	$8, %rax
	movq	%rax, %rdi
	call	free@PLT
	.loc 1 59 5
	nop
	leave
	.cfi_def_cfa 7, 8
	ret
	.cfi_endproc
.LFE15:
	.size	_Z11canary_freePv, .-_Z11canary_freePv
	.globl	_Z12generateHashPKvS0_
	.type	_Z12generateHashPKvS0_, @function
_Z12generateHashPKvS0_:
.LFB16:
	.loc 1 62 5
	.cfi_startproc
	endbr64
	pushq	%rbp
	.cfi_def_cfa_offset 16
	.cfi_offset 6, -16
	movq	%rsp, %rbp
	.cfi_def_cfa_register 6
	movq	%rdi, -24(%rbp)
	movq	%rsi, -32(%rbp)
	.loc 1 63 5
	cmpq	$0, -24(%rbp)
	je	.L10
	.loc 1 63 16 discriminator 1
	cmpq	$0, -32(%rbp)
	jne	.L11
.L10:
	.loc 1 64 16
	movl	$0, %eax
	jmp	.L12
.L11:
	.loc 1 66 9
	movl	$17, -12(%rbp)
.LBB6:
	.loc 1 68 22
	movq	-24(%rbp), %rax
	movq	%rax, -8(%rbp)
	.loc 1 68 5
	jmp	.L13
.L14:
	.loc 1 69 25 discriminator 3
	movl	-12(%rbp), %eax
	sall	$5, %eax
	movl	%eax, %edx
	.loc 1 69 31 discriminator 3
	movl	-12(%rbp), %eax
	addl	%eax, %edx
	.loc 1 69 41 discriminator 3
	movq	-8(%rbp), %rax
	movzbl	(%rax), %eax
	movsbl	%al, %eax
	.loc 1 69 39 discriminator 3
	addl	%edx, %eax
	.loc 1 69 14 discriminator 3
	addl	%eax, -12(%rbp)
	.loc 1 68 5 discriminator 3
	addq	$1, -8(%rbp)
.L13:
	.loc 1 68 53 discriminator 1
	movq	-8(%rbp), %rax
	cmpq	-32(%rbp), %rax
	jne	.L14
.LBE6:
	.loc 1 71 12
	movl	-12(%rbp), %eax
.L12:
	.loc 1 72 5
	popq	%rbp
	.cfi_def_cfa 7, 8
	ret
	.cfi_endproc
.LFE16:
	.size	_Z12generateHashPKvS0_, .-_Z12generateHashPKvS0_
.Letext0:
	.file 2 "/usr/lib/gcc/x86_64-linux-gnu/11/include/stddef.h"
	.file 3 "./ATC/my_safety/my_safety.h"
	.file 4 "/usr/include/stdlib.h"
	.file 5 "/usr/include/c++/11/cstdlib"
	.file 6 "/usr/include/c++/11/bits/std_abs.h"
	.file 7 "/usr/include/c++/11/stdlib.h"
	.file 8 "/usr/include/x86_64-linux-gnu/c++/11/bits/c++config.h"
	.section	.note.GNU-stack,"",@progbits
	.section	.note.gnu.property,"a"
	.align 8
	.long	1f - 0f
	.long	4f - 1f
	.long	5
0:
	.string	"GNU"
1:
	.align 8
	.long	0xc0000002
	.long	3f - 2f
2:
	.long	0x3
3:
	.align 8
4:
